; Function Attrs: nounwind uwtable
define internal i32 @dissect_snmp_T_msgAuthoritativeEngineID(i1 noundef zeroext %0, ptr noundef %1, i32 noundef %2, ptr noundef %3, ptr noundef %4, i32 noundef %5) #0 {
  %7 = tail call i32 @dissect_ber_octet_string(i1 noundef zeroext %0, ptr noundef %3, ptr noundef %4, ptr noundef %1, i32 noundef %2, i32 noundef %5, ptr noundef nonnull getelementptr inbounds nuw (i8, ptr @usm_p, i64 24)) #11
  %8 = load ptr, ptr getelementptr inbounds nuw (i8, ptr @usm_p, i64 24), align 8
  %.not = icmp eq ptr %8, null
  br i1 %.not, label %19, label %9

9:                                                ; preds = %6
  %10 = getelementptr inbounds nuw i8, ptr %3, i64 24
  %11 = load ptr, ptr %10, align 8
  %12 = load i32, ptr @ett_engineid, align 4
  %13 = tail call ptr @proto_item_add_subtree(ptr noundef %11, i32 noundef %12) #11
  %14 = getelementptr inbounds nuw i8, ptr %3, i64 16
  %15 = load ptr, ptr %14, align 8
  %16 = load ptr, ptr getelementptr inbounds nuw (i8, ptr @usm_p, i64 24), align 8
  %17 = tail call i32 @tvb_reported_length_remaining(ptr noundef %16, i32 noundef 0) #11
  %18 = tail call i32 @dissect_snmp_engineid(ptr noundef %13, ptr noundef %15, ptr noundef %16, i32 noundef 0, i32 noundef %17)
  br label %19

19:                                               ; preds = %9, %6
  ret i32 %7
}